target datalayout = "e-m:e-p270:32:32-p271:32:32-p272:64:64-i64:64-i128:128-f80:128-n8:16:32:64-S128"
target triple = "x86_64-pc-linux-gnu"

%"class.spv::SpirvStream" = type <{ ptr, ptr, ptr, i32, i32, i32, [4 x i8], %"class.std::vector", %"class.std::vector.0", i32, [4 x i8], %"class.std::stack", i32, [4 x i8] }>
%"class.std::vector" = type { %"struct.std::_Vector_base" }
%"struct.std::_Vector_base" = type { %"struct.std::_Vector_base<unsigned int, std::allocator<unsigned int>>::_Vector_impl" }
%"struct.std::_Vector_base<unsigned int, std::allocator<unsigned int>>::_Vector_impl" = type { %"struct.std::_Vector_base<unsigned int, std::allocator<unsigned int>>::_Vector_impl_data" }
%"struct.std::_Vector_base<unsigned int, std::allocator<unsigned int>>::_Vector_impl_data" = type { ptr, ptr, ptr }
%"class.std::vector.0" = type { %"struct.std::_Vector_base.1" }
%"struct.std::_Vector_base.1" = type { %"struct.std::_Vector_base<std::__cxx11::basic_string<char>, std::allocator<std::__cxx11::basic_string<char>>>::_Vector_impl" }
%"struct.std::_Vector_base<std::__cxx11::basic_string<char>, std::allocator<std::__cxx11::basic_string<char>>>::_Vector_impl" = type { %"struct.std::_Vector_base<std::__cxx11::basic_string<char>, std::allocator<std::__cxx11::basic_string<char>>>::_Vector_impl_data" }
%"struct.std::_Vector_base<std::__cxx11::basic_string<char>, std::allocator<std::__cxx11::basic_string<char>>>::_Vector_impl_data" = type { ptr, ptr, ptr }
%"class.std::stack" = type { %"class.std::deque" }
%"class.std::deque" = type { %"class.std::_Deque_base" }
%"class.std::_Deque_base" = type { %"struct.std::_Deque_base<unsigned int, std::allocator<unsigned int>>::_Deque_impl" }
%"struct.std::_Deque_base<unsigned int, std::allocator<unsigned int>>::_Deque_impl" = type { %"struct.std::_Deque_base<unsigned int, std::allocator<unsigned int>>::_Deque_impl_data" }
%"struct.std::_Deque_base<unsigned int, std::allocator<unsigned int>>::_Deque_impl_data" = type { ptr, i64, %"struct.std::_Deque_iterator", %"struct.std::_Deque_iterator" }
%"struct.std::_Deque_iterator" = type { ptr, ptr, ptr, ptr }

@.str.10 = private unnamed_addr constant [3 x i8] c"  \00", align 1

; Function Attrs: mustprogress nounwind uwtable
define linkonce_odr noundef i64 @_ZSt16__deque_buf_sizem(i64 noundef %0) #4 comdat {
  %2 = alloca i64, align 8
  store i64 %0, ptr %2, align 8
  %3 = load i64, ptr %2, align 8
  %4 = icmp ult i64 %3, 512
  br i1 %4, label %5, label %8

5:                                                ; preds = %1
  %6 = load i64, ptr %2, align 8
  %7 = udiv i64 512, %6
  br label %9

8:                                                ; preds = %1
  br label %9

9:                                                ; preds = %8, %5
  %10 = phi i64 [ %7, %5 ], [ 1, %8 ]
  ret i64 %10
}

; Function Attrs: mustprogress nounwind uwtable
define linkonce_odr noundef i64 @_ZNSt15_Deque_iteratorIjRjPjE14_S_buffer_sizeEv() #4 comdat align 2 {
  %1 = call noundef i64 @_ZSt16__deque_buf_sizem(i64 noundef 4)
  ret i64 %1
}

; Function Attrs: mustprogress nounwind uwtable
define linkonce_odr noundef i64 @_ZStmiRKSt15_Deque_iteratorIjRjPjES4_(ptr noundef nonnull align 8 dereferenceable(32) %0, ptr noundef nonnull align 8 dereferenceable(32) %1) #4 comdat {
  %3 = alloca ptr, align 8
  %4 = alloca ptr, align 8
  store ptr %0, ptr %3, align 8
  store ptr %1, ptr %4, align 8
  %5 = call noundef i64 @_ZNSt15_Deque_iteratorIjRjPjE14_S_buffer_sizeEv() #3
  %6 = load ptr, ptr %3, align 8
  %7 = getelementptr inbounds %"struct.std::_Deque_iterator", ptr %6, i32 0, i32 3
  %8 = load ptr, ptr %7, align 8
  %9 = load ptr, ptr %4, align 8
  %10 = getelementptr inbounds %"struct.std::_Deque_iterator", ptr %9, i32 0, i32 3
  %11 = load ptr, ptr %10, align 8
  %12 = ptrtoint ptr %8 to i64
  %13 = ptrtoint ptr %11 to i64
  %14 = sub i64 %12, %13
  %15 = sdiv exact i64 %14, 8
  %16 = load ptr, ptr %3, align 8
  %17 = getelementptr inbounds %"struct.std::_Deque_iterator", ptr %16, i32 0, i32 3
  %18 = load ptr, ptr %17, align 8
  %19 = icmp ne ptr %18, null
  %20 = zext i1 %19 to i64
  %21 = sub nsw i64 %15, %20
  %22 = mul nsw i64 %5, %21
  %23 = load ptr, ptr %3, align 8
  %24 = getelementptr inbounds %"struct.std::_Deque_iterator", ptr %23, i32 0, i32 0
  %25 = load ptr, ptr %24, align 8
  %26 = load ptr, ptr %3, align 8
  %27 = getelementptr inbounds %"struct.std::_Deque_iterator", ptr %26, i32 0, i32 1
  %28 = load ptr, ptr %27, align 8
  %29 = ptrtoint ptr %25 to i64
  %30 = ptrtoint ptr %28 to i64
  %31 = sub i64 %29, %30
  %32 = sdiv exact i64 %31, 4
  %33 = add nsw i64 %22, %32
  %34 = load ptr, ptr %4, align 8
  %35 = getelementptr inbounds %"struct.std::_Deque_iterator", ptr %34, i32 0, i32 2
  %36 = load ptr, ptr %35, align 8
  %37 = load ptr, ptr %4, align 8
  %38 = getelementptr inbounds %"struct.std::_Deque_iterator", ptr %37, i32 0, i32 0
  %39 = load ptr, ptr %38, align 8
  %40 = ptrtoint ptr %36 to i64
  %41 = ptrtoint ptr %39 to i64
  %42 = sub i64 %40, %41
  %43 = sdiv exact i64 %42, 4
  %44 = add nsw i64 %33, %43
  ret i64 %44
}

; Function Attrs: mustprogress nounwind uwtable
define linkonce_odr noundef i64 @_ZNKSt5dequeIjSaIjEE4sizeEv(ptr noundef nonnull align 8 dereferenceable(80) %0) #4 comdat align 2 {
  %2 = alloca ptr, align 8
  store ptr %0, ptr %2, align 8
  %3 = load ptr, ptr %2, align 8
  %4 = getelementptr inbounds %"class.std::_Deque_base", ptr %3, i32 0, i32 0
  %5 = getelementptr inbounds %"struct.std::_Deque_base<unsigned int, std::allocator<unsigned int>>::_Deque_impl_data", ptr %4, i32 0, i32 3
  %6 = getelementptr inbounds %"class.std::_Deque_base", ptr %3, i32 0, i32 0
  %7 = getelementptr inbounds %"struct.std::_Deque_base<unsigned int, std::allocator<unsigned int>>::_Deque_impl_data", ptr %6, i32 0, i32 2
  %8 = call noundef i64 @_ZStmiRKSt15_Deque_iteratorIjRjPjES4_(ptr noundef nonnull align 8 dereferenceable(32) %5, ptr noundef nonnull align 8 dereferenceable(32) %7) #3
  ret i64 %8
}

; Function Attrs: mustprogress nounwind uwtable
define linkonce_odr noundef i64 @_ZNKSt5stackIjSt5dequeIjSaIjEEE4sizeEv(ptr noundef nonnull align 8 dereferenceable(80) %0) #4 comdat align 2 {
  %2 = alloca ptr, align 8
  store ptr %0, ptr %2, align 8
  %3 = load ptr, ptr %2, align 8
  %4 = getelementptr inbounds %"class.std::stack", ptr %3, i32 0, i32 0
  %5 = call noundef i64 @_ZNKSt5dequeIjSaIjEE4sizeEv(ptr noundef nonnull align 8 dereferenceable(80) %4) #3
  ret i64 %5
}

; Function Attrs: mustprogress nounwind uwtable
define void @_ZN3spv11SpirvStream12outputIndentEv(ptr noundef nonnull align 8 dereferenceable(180) %0) #4 align 2 {
  %2 = alloca ptr, align 8
  %3 = alloca i32, align 4
  store ptr %0, ptr %2, align 8
  %4 = load ptr, ptr %2, align 8
  store i32 0, ptr %3, align 4
  br label %5

5:                                                ; preds = %15, %1
  %6 = load i32, ptr %3, align 4
  %7 = getelementptr inbounds %"class.spv::SpirvStream", ptr %4, i32 0, i32 11
  %8 = call noundef i64 @_ZNKSt5stackIjSt5dequeIjSaIjEEE4sizeEv(ptr noundef nonnull align 8 dereferenceable(80) %7)
  %9 = trunc i64 %8 to i32
  %10 = icmp slt i32 %6, %9
  br i1 %10, label %11, label %18

11:                                               ; preds = %5
  %12 = getelementptr inbounds %"class.spv::SpirvStream", ptr %4, i32 0, i32 1
  %13 = load ptr, ptr %12, align 8
  %14 = call noundef nonnull align 8 dereferenceable(8) ptr @_ZStlsISt11char_traitsIcEERSt13basic_ostreamIcT_ES5_PKc(ptr noundef nonnull align 8 dereferenceable(8) %13, ptr noundef @.str.10)
  br label %15

15:                                               ; preds = %11
  %16 = load i32, ptr %3, align 4
  %17 = add nsw i32 %16, 1
  store i32 %17, ptr %3, align 4
  br label %5, !llvm.loop !6

18:                                               ; preds = %5
  ret void
}