; Function Attrs: mustprogress nounwind uwtable
define void @_ZN3spv11SpirvStream12outputIndentEv(ptr nocapture noundef nonnull readonly align 8 dereferenceable(180) %0) local_unnamed_addr #3 align 2 {
  %2 = getelementptr inbounds i8, ptr %0, i64 144
  %3 = getelementptr inbounds i8, ptr %0, i64 112
  %4 = getelementptr inbounds i8, ptr %0, i64 168
  %5 = getelementptr inbounds i8, ptr %0, i64 136
  %6 = getelementptr inbounds i8, ptr %0, i64 152
  %7 = getelementptr inbounds i8, ptr %0, i64 128
  %8 = getelementptr inbounds i8, ptr %0, i64 8
  br label %9

9:                                                ; preds = %35, %1
  %.0 = phi i32 [ 0, %1 ], [ %38, %35 ]
  %10 = load ptr, ptr %4, align 8
  %11 = load ptr, ptr %5, align 8
  %12 = ptrtoint ptr %10 to i64
  %13 = ptrtoint ptr %11 to i64
  %14 = sub i64 %12, %13
  %15 = ashr exact i64 %14, 3
  %16 = icmp ne ptr %10, null
  %.neg.i.i.i = sext i1 %16 to i64
  %17 = add nsw i64 %15, %.neg.i.i.i
  %18 = shl nsw i64 %17, 7
  %19 = load ptr, ptr %2, align 8
  %20 = load ptr, ptr %6, align 8
  %21 = ptrtoint ptr %19 to i64
  %22 = ptrtoint ptr %20 to i64
  %23 = sub i64 %21, %22
  %24 = lshr exact i64 %23, 2
  %25 = add i64 %18, %24
  %26 = load ptr, ptr %7, align 8
  %27 = load ptr, ptr %3, align 8
  %28 = ptrtoint ptr %26 to i64
  %29 = ptrtoint ptr %27 to i64
  %30 = sub i64 %28, %29
  %31 = lshr exact i64 %30, 2
  %32 = add i64 %25, %31
  %33 = trunc i64 %32 to i32
  %34 = icmp slt i32 %.0, %33
  br i1 %34, label %35, label %39

35:                                               ; preds = %9
  %36 = load ptr, ptr %8, align 8
  %37 = tail call noundef nonnull align 8 dereferenceable(8) ptr @_ZStlsISt11char_traitsIcEERSt13basic_ostreamIcT_ES5_PKc(ptr noundef nonnull align 8 dereferenceable(8) %36, ptr noundef nonnull @.str.10) #18
  %38 = add nuw nsw i32 %.0, 1
  br label %9, !llvm.loop !6

39:                                               ; preds = %9
  ret void
}